; Function Attrs: nofree norecurse nosync nounwind memory(read, inaccessiblemem: none) uwtable
define range(i32 0, -2147483648) i32 @Wlc_ObjFaninBitNum(ptr noundef readonly captures(none) %0, ptr noundef readonly captures(none) %1) local_unnamed_addr #6 {
  %3 = getelementptr i8, ptr %1, i64 4
  %.val11 = load i32, ptr %3, align 4, !tbaa !31
  %4 = icmp sgt i32 %.val11, 0
  br i1 %4, label %.lr.ph, label %.critedge

.lr.ph:                                           ; preds = %2
  %5 = icmp samesign ugt i32 %.val11, 2
  %6 = getelementptr inbounds nuw i8, ptr %1, i64 16
  %7 = getelementptr i8, ptr %0, i64 640
  %.val = load ptr, ptr %7, align 8, !tbaa !25
  br i1 %5, label %.lr.ph.split.us, label %.lr.ph.split

.lr.ph.split.us:                                  ; preds = %.lr.ph
  %8 = load ptr, ptr %6, align 8, !tbaa !26
  %wide.trip.count35 = zext nneg i32 %.val11 to i64
  br label %Wlc_ObjHasArray.exit.thread.i.i.us

Wlc_ObjHasArray.exit.thread.i.i.us:               ; preds = %Wlc_ObjHasArray.exit.thread.i.i.us, %.lr.ph.split.us
  %indvars.iv32 = phi i64 [ %indvars.iv.next33, %Wlc_ObjHasArray.exit.thread.i.i.us ], [ 0, %.lr.ph.split.us ]
  %.013.us = phi i32 [ %18, %Wlc_ObjHasArray.exit.thread.i.i.us ], [ 0, %.lr.ph.split.us ]
  %9 = getelementptr inbounds nuw i32, ptr %8, i64 %indvars.iv32
  %10 = load i32, ptr %9, align 4, !tbaa !27
  %11 = sext i32 %10 to i64
  %12 = getelementptr inbounds %struct.Wlc_Obj_t_, ptr %.val, i64 %11
  %13 = getelementptr i8, ptr %12, i64 8
  %.val9.us = load i32, ptr %13, align 8, !tbaa !33
  %14 = getelementptr i8, ptr %12, i64 12
  %.val10.us = load i32, ptr %14, align 4, !tbaa !34
  %15 = sub nsw i32 %.val9.us, %.val10.us
  %16 = tail call i32 @llvm.abs.i32(i32 %15, i1 true)
  %17 = add nuw nsw i32 %.013.us, 1
  %18 = add nuw nsw i32 %17, %16
  %indvars.iv.next33 = add nuw nsw i64 %indvars.iv32, 1
  %exitcond36.not = icmp eq i64 %indvars.iv.next33, %wide.trip.count35
  br i1 %exitcond36.not, label %.critedge, label %Wlc_ObjHasArray.exit.thread.i.i.us, !llvm.loop !41

.lr.ph.split:                                     ; preds = %.lr.ph
  %19 = load i16, ptr %1, align 8
  %20 = and i16 %19, 63
  switch i16 %20, label %Wlc_ObjFaninId.exit.preheader [
    i16 6, label %.lr.ph.split.split.us
    i16 22, label %.lr.ph.split.split.us
  ]

Wlc_ObjFaninId.exit.preheader:                    ; preds = %.lr.ph.split
  %wide.trip.count30 = zext nneg i32 %.val11 to i64
  br label %Wlc_ObjFaninId.exit

.lr.ph.split.split.us:                            ; preds = %.lr.ph.split, %.lr.ph.split
  %21 = load ptr, ptr %6, align 8, !tbaa !26
  %wide.trip.count = zext nneg i32 %.val11 to i64
  br label %Wlc_ObjHasArray.exit.thread.i.i.us16

Wlc_ObjHasArray.exit.thread.i.i.us16:             ; preds = %Wlc_ObjHasArray.exit.thread.i.i.us16, %.lr.ph.split.split.us
  %indvars.iv = phi i64 [ %indvars.iv.next, %Wlc_ObjHasArray.exit.thread.i.i.us16 ], [ 0, %.lr.ph.split.split.us ]
  %.013.us14 = phi i32 [ %31, %Wlc_ObjHasArray.exit.thread.i.i.us16 ], [ 0, %.lr.ph.split.split.us ]
  %22 = getelementptr inbounds nuw i32, ptr %21, i64 %indvars.iv
  %23 = load i32, ptr %22, align 4, !tbaa !27
  %24 = sext i32 %23 to i64
  %25 = getelementptr inbounds %struct.Wlc_Obj_t_, ptr %.val, i64 %24
  %26 = getelementptr i8, ptr %25, i64 8
  %.val9.us18 = load i32, ptr %26, align 8, !tbaa !33
  %27 = getelementptr i8, ptr %25, i64 12
  %.val10.us19 = load i32, ptr %27, align 4, !tbaa !34
  %28 = sub nsw i32 %.val9.us18, %.val10.us19
  %29 = tail call i32 @llvm.abs.i32(i32 %28, i1 true)
  %30 = add nuw nsw i32 %.013.us14, 1
  %31 = add nuw nsw i32 %30, %29
  %indvars.iv.next = add nuw nsw i64 %indvars.iv, 1
  %exitcond.not = icmp eq i64 %indvars.iv.next, %wide.trip.count
  br i1 %exitcond.not, label %.critedge, label %Wlc_ObjHasArray.exit.thread.i.i.us16, !llvm.loop !41

Wlc_ObjFaninId.exit:                              ; preds = %Wlc_ObjFaninId.exit.preheader, %Wlc_ObjFaninId.exit
  %indvars.iv27 = phi i64 [ 0, %Wlc_ObjFaninId.exit.preheader ], [ %indvars.iv.next28, %Wlc_ObjFaninId.exit ]
  %.013 = phi i32 [ 0, %Wlc_ObjFaninId.exit.preheader ], [ %41, %Wlc_ObjFaninId.exit ]
  %32 = getelementptr inbounds nuw i32, ptr %6, i64 %indvars.iv27
  %33 = load i32, ptr %32, align 4, !tbaa !27
  %34 = sext i32 %33 to i64
  %35 = getelementptr inbounds %struct.Wlc_Obj_t_, ptr %.val, i64 %34
  %36 = getelementptr i8, ptr %35, i64 8
  %.val9 = load i32, ptr %36, align 8, !tbaa !33
  %37 = getelementptr i8, ptr %35, i64 12
  %.val10 = load i32, ptr %37, align 4, !tbaa !34
  %38 = sub nsw i32 %.val9, %.val10
  %39 = tail call i32 @llvm.abs.i32(i32 %38, i1 true)
  %40 = add nuw nsw i32 %.013, 1
  %41 = add nuw nsw i32 %40, %39
  %indvars.iv.next28 = add nuw nsw i64 %indvars.iv27, 1
  %exitcond31.not = icmp eq i64 %indvars.iv.next28, %wide.trip.count30
  br i1 %exitcond31.not, label %.critedge, label %Wlc_ObjFaninId.exit, !llvm.loop !41

.critedge:                                        ; preds = %Wlc_ObjHasArray.exit.thread.i.i.us16, %Wlc_ObjFaninId.exit, %Wlc_ObjHasArray.exit.thread.i.i.us, %2
  %.0.lcssa = phi i32 [ 0, %2 ], [ %18, %Wlc_ObjHasArray.exit.thread.i.i.us ], [ %41, %Wlc_ObjFaninId.exit ], [ %31, %Wlc_ObjHasArray.exit.thread.i.i.us16 ]
  ret i32 %.0.lcssa
}